target datalayout = "e-m:e-p270:32:32-p271:32:32-p272:64:64-i64:64-i128:128-f80:128-n8:16:32:64-S128"
target triple = "x86_64-pc-linux-gnu"

%struct.AVCodecContext = type { ptr, i32, i32, ptr, i32, i32, ptr, ptr, ptr, i64, i32, i32, ptr, i32, %struct.AVRational, %struct.AVRational, %struct.AVRational, i32, i32, i32, i32, i32, %struct.AVRational, i32, i32, i32, i32, i32, i32, i32, i32, i32, i32, i32, ptr, ptr, i32, float, float, float, float, float, float, float, float, float, i32, i32, i32, i32, i32, i32, i32, i32, i32, i32, i32, i32, ptr, ptr, ptr, i32, i32, i32, i32, i32, i32, i32, i32, i32, i32, %struct.AVChannelLayout, i32, i32, i32, i32, i32, i32, i32, i32, ptr, i32, i32, i32, float, float, i32, i32, i32, i32, i32, ptr, i64, i64, float, float, i32, i32, ptr, ptr, i32, i32, i32, i32, i32, ptr, ptr, ptr, ptr, i32, i32, [8 x i64], i32, i32, i32, i32, i32, i32, i32, ptr, ptr, i32, i32, i32, i32, i32, i32, i32, i32, i32, i32, ptr, ptr, i32, i32, ptr, ptr, ptr, ptr, i32, i32, i64, i32, i32, i64, ptr, i64, ptr, i32, ptr, i32 }
%struct.AVRational = type { i32, i32 }
%struct.AVChannelLayout = type { i32, i32, %union.anon.0, ptr }
%union.anon.0 = type { i64 }
%struct.ALSDecContext = type { ptr, %struct.ALSSpecificConfig, %struct.GetBitContext, %struct.BswapDSPContext, ptr, i32, i32, i32, i32, i32, i32, i32, i32, ptr, ptr, i32, ptr, ptr, ptr, ptr, ptr, ptr, ptr, ptr, ptr, ptr, ptr, ptr, ptr, ptr, ptr, ptr, ptr, ptr, ptr, ptr, ptr, ptr, ptr, ptr, ptr, ptr, ptr, ptr, i32 }
%struct.ALSSpecificConfig = type { i32, i32, i32, i32, i32, i32, i32, i32, i32, i32, i32, i32, i32, i32, i32, i32, i32, i32, i32, i32, ptr, i32 }
%struct.GetBitContext = type { ptr, ptr, i32, i32, i32 }
%struct.BswapDSPContext = type { ptr, ptr }
%struct.MLZ = type { i32, i32, i32, i32, i32, i32, ptr, ptr }

; Function Attrs: cold nounwind optsize uwtable
define internal i32 @decode_end(ptr noundef %0) #0 {
  %2 = alloca ptr, align 8
  %3 = alloca ptr, align 8
  %4 = alloca i32, align 4
  store ptr %0, ptr %2, align 8, !tbaa !4
  call void @llvm.lifetime.start.p0(i64 8, ptr %3) #13
  %5 = load ptr, ptr %2, align 8, !tbaa !4
  %6 = getelementptr inbounds nuw %struct.AVCodecContext, ptr %5, i32 0, i32 6
  %7 = load ptr, ptr %6, align 8, !tbaa !9
  store ptr %7, ptr %3, align 8, !tbaa !29
  call void @llvm.lifetime.start.p0(i64 4, ptr %4) #13
  %8 = load ptr, ptr %3, align 8, !tbaa !29
  %9 = getelementptr inbounds nuw %struct.ALSDecContext, ptr %8, i32 0, i32 1
  %10 = getelementptr inbounds nuw %struct.ALSSpecificConfig, ptr %9, i32 0, i32 20
  call void @av_freep(ptr noundef %10)
  %11 = load ptr, ptr %3, align 8, !tbaa !29
  %12 = getelementptr inbounds nuw %struct.ALSDecContext, ptr %11, i32 0, i32 13
  %13 = load ptr, ptr %3, align 8, !tbaa !29
  %14 = getelementptr inbounds nuw %struct.ALSDecContext, ptr %13, i32 0, i32 14
  call void @ff_bgmc_end(ptr noundef %12, ptr noundef %14)
  %15 = load ptr, ptr %3, align 8, !tbaa !29
  %16 = getelementptr inbounds nuw %struct.ALSDecContext, ptr %15, i32 0, i32 16
  call void @av_freep(ptr noundef %16)
  %17 = load ptr, ptr %3, align 8, !tbaa !29
  %18 = getelementptr inbounds nuw %struct.ALSDecContext, ptr %17, i32 0, i32 17
  call void @av_freep(ptr noundef %18)
  %19 = load ptr, ptr %3, align 8, !tbaa !29
  %20 = getelementptr inbounds nuw %struct.ALSDecContext, ptr %19, i32 0, i32 18
  call void @av_freep(ptr noundef %20)
  %21 = load ptr, ptr %3, align 8, !tbaa !29
  %22 = getelementptr inbounds nuw %struct.ALSDecContext, ptr %21, i32 0, i32 19
  call void @av_freep(ptr noundef %22)
  %23 = load ptr, ptr %3, align 8, !tbaa !29
  %24 = getelementptr inbounds nuw %struct.ALSDecContext, ptr %23, i32 0, i32 20
  call void @av_freep(ptr noundef %24)
  %25 = load ptr, ptr %3, align 8, !tbaa !29
  %26 = getelementptr inbounds nuw %struct.ALSDecContext, ptr %25, i32 0, i32 21
  call void @av_freep(ptr noundef %26)
  %27 = load ptr, ptr %3, align 8, !tbaa !29
  %28 = getelementptr inbounds nuw %struct.ALSDecContext, ptr %27, i32 0, i32 22
  call void @av_freep(ptr noundef %28)
  %29 = load ptr, ptr %3, align 8, !tbaa !29
  %30 = getelementptr inbounds nuw %struct.ALSDecContext, ptr %29, i32 0, i32 23
  call void @av_freep(ptr noundef %30)
  %31 = load ptr, ptr %3, align 8, !tbaa !29
  %32 = getelementptr inbounds nuw %struct.ALSDecContext, ptr %31, i32 0, i32 24
  call void @av_freep(ptr noundef %32)
  %33 = load ptr, ptr %3, align 8, !tbaa !29
  %34 = getelementptr inbounds nuw %struct.ALSDecContext, ptr %33, i32 0, i32 26
  call void @av_freep(ptr noundef %34)
  %35 = load ptr, ptr %3, align 8, !tbaa !29
  %36 = getelementptr inbounds nuw %struct.ALSDecContext, ptr %35, i32 0, i32 25
  call void @av_freep(ptr noundef %36)
  %37 = load ptr, ptr %3, align 8, !tbaa !29
  %38 = getelementptr inbounds nuw %struct.ALSDecContext, ptr %37, i32 0, i32 27
  call void @av_freep(ptr noundef %38)
  %39 = load ptr, ptr %3, align 8, !tbaa !29
  %40 = getelementptr inbounds nuw %struct.ALSDecContext, ptr %39, i32 0, i32 28
  call void @av_freep(ptr noundef %40)
  %41 = load ptr, ptr %3, align 8, !tbaa !29
  %42 = getelementptr inbounds nuw %struct.ALSDecContext, ptr %41, i32 0, i32 32
  call void @av_freep(ptr noundef %42)
  %43 = load ptr, ptr %3, align 8, !tbaa !29
  %44 = getelementptr inbounds nuw %struct.ALSDecContext, ptr %43, i32 0, i32 33
  call void @av_freep(ptr noundef %44)
  %45 = load ptr, ptr %3, align 8, !tbaa !29
  %46 = getelementptr inbounds nuw %struct.ALSDecContext, ptr %45, i32 0, i32 34
  call void @av_freep(ptr noundef %46)
  %47 = load ptr, ptr %3, align 8, !tbaa !29
  %48 = getelementptr inbounds nuw %struct.ALSDecContext, ptr %47, i32 0, i32 29
  call void @av_freep(ptr noundef %48)
  %49 = load ptr, ptr %3, align 8, !tbaa !29
  %50 = getelementptr inbounds nuw %struct.ALSDecContext, ptr %49, i32 0, i32 30
  call void @av_freep(ptr noundef %50)
  %51 = load ptr, ptr %3, align 8, !tbaa !29
  %52 = getelementptr inbounds nuw %struct.ALSDecContext, ptr %51, i32 0, i32 31
  call void @av_freep(ptr noundef %52)
  %53 = load ptr, ptr %3, align 8, !tbaa !29
  %54 = getelementptr inbounds nuw %struct.ALSDecContext, ptr %53, i32 0, i32 35
  call void @av_freep(ptr noundef %54)
  %55 = load ptr, ptr %3, align 8, !tbaa !29
  %56 = getelementptr inbounds nuw %struct.ALSDecContext, ptr %55, i32 0, i32 36
  %57 = load ptr, ptr %56, align 8, !tbaa !86
  %58 = icmp ne ptr %57, null
  br i1 %58, label %59, label %66

59:                                               ; preds = %1
  %60 = load ptr, ptr %3, align 8, !tbaa !29
  %61 = getelementptr inbounds nuw %struct.ALSDecContext, ptr %60, i32 0, i32 36
  %62 = load ptr, ptr %61, align 8, !tbaa !86
  %63 = getelementptr inbounds nuw %struct.MLZ, ptr %62, i32 0, i32 6
  call void @av_freep(ptr noundef %63)
  %64 = load ptr, ptr %3, align 8, !tbaa !29
  %65 = getelementptr inbounds nuw %struct.ALSDecContext, ptr %64, i32 0, i32 36
  call void @av_freep(ptr noundef %65)
  br label %66

66:                                               ; preds = %59, %1
  %67 = load ptr, ptr %3, align 8, !tbaa !29
  %68 = getelementptr inbounds nuw %struct.ALSDecContext, ptr %67, i32 0, i32 37
  call void @av_freep(ptr noundef %68)
  %69 = load ptr, ptr %3, align 8, !tbaa !29
  %70 = getelementptr inbounds nuw %struct.ALSDecContext, ptr %69, i32 0, i32 38
  call void @av_freep(ptr noundef %70)
  %71 = load ptr, ptr %3, align 8, !tbaa !29
  %72 = getelementptr inbounds nuw %struct.ALSDecContext, ptr %71, i32 0, i32 39
  call void @av_freep(ptr noundef %72)
  %73 = load ptr, ptr %3, align 8, !tbaa !29
  %74 = getelementptr inbounds nuw %struct.ALSDecContext, ptr %73, i32 0, i32 40
  call void @av_freep(ptr noundef %74)
  %75 = load ptr, ptr %3, align 8, !tbaa !29
  %76 = getelementptr inbounds nuw %struct.ALSDecContext, ptr %75, i32 0, i32 41
  %77 = load ptr, ptr %76, align 8, !tbaa !82
  %78 = icmp ne ptr %77, null
  br i1 %78, label %79, label %100

79:                                               ; preds = %66
  store i32 0, ptr %4, align 4, !tbaa !44
  br label %80

80:                                               ; preds = %94, %79
  %81 = load i32, ptr %4, align 4, !tbaa !44
  %82 = load ptr, ptr %2, align 8, !tbaa !4
  %83 = getelementptr inbounds nuw %struct.AVCodecContext, ptr %82, i32 0, i32 71
  %84 = getelementptr inbounds nuw %struct.AVChannelLayout, ptr %83, i32 0, i32 1
  %85 = load i32, ptr %84, align 4, !tbaa !45
  %86 = icmp slt i32 %81, %85
  br i1 %86, label %87, label %97

87:                                               ; preds = %80
  %88 = load ptr, ptr %3, align 8, !tbaa !29
  %89 = getelementptr inbounds nuw %struct.ALSDecContext, ptr %88, i32 0, i32 41
  %90 = load ptr, ptr %89, align 8, !tbaa !82
  %91 = load i32, ptr %4, align 4, !tbaa !44
  %92 = sext i32 %91 to i64
  %93 = getelementptr inbounds ptr, ptr %90, i64 %92
  call void @av_freep(ptr noundef %93)
  br label %94

94:                                               ; preds = %87
  %95 = load i32, ptr %4, align 4, !tbaa !44
  %96 = add nsw i32 %95, 1
  store i32 %96, ptr %4, align 4, !tbaa !44
  br label %80, !llvm.loop !133

97:                                               ; preds = %80
  %98 = load ptr, ptr %3, align 8, !tbaa !29
  %99 = getelementptr inbounds nuw %struct.ALSDecContext, ptr %98, i32 0, i32 41
  call void @av_freep(ptr noundef %99)
  br label %100

100:                                              ; preds = %97, %66
  %101 = load ptr, ptr %3, align 8, !tbaa !29
  %102 = getelementptr inbounds nuw %struct.ALSDecContext, ptr %101, i32 0, i32 42
  call void @av_freep(ptr noundef %102)
  %103 = load ptr, ptr %3, align 8, !tbaa !29
  %104 = getelementptr inbounds nuw %struct.ALSDecContext, ptr %103, i32 0, i32 43
  call void @av_freep(ptr noundef %104)
  call void @llvm.lifetime.end.p0(i64 4, ptr %4) #13
  call void @llvm.lifetime.end.p0(i64 8, ptr %3) #13
  ret i32 0
}