; Function Attrs: cold nounwind optsize uwtable
define internal noundef i32 @decode_end(ptr noundef readonly captures(none) %0) #0 {
  %2 = getelementptr inbounds nuw i8, ptr %0, i64 32
  %3 = load ptr, ptr %2, align 8, !tbaa !4
  %4 = getelementptr inbounds nuw i8, ptr %3, i64 88
  tail call void @av_freep(ptr noundef nonnull %4) #16
  %5 = getelementptr inbounds nuw i8, ptr %3, i64 192
  %6 = getelementptr inbounds nuw i8, ptr %3, i64 200
  tail call void @ff_bgmc_end(ptr noundef nonnull %5, ptr noundef nonnull %6) #16
  %7 = getelementptr inbounds nuw i8, ptr %3, i64 216
  tail call void @av_freep(ptr noundef nonnull %7) #16
  %8 = getelementptr inbounds nuw i8, ptr %3, i64 224
  tail call void @av_freep(ptr noundef nonnull %8) #16
  %9 = getelementptr inbounds nuw i8, ptr %3, i64 232
  tail call void @av_freep(ptr noundef nonnull %9) #16
  %10 = getelementptr inbounds nuw i8, ptr %3, i64 240
  tail call void @av_freep(ptr noundef nonnull %10) #16
  %11 = getelementptr inbounds nuw i8, ptr %3, i64 248
  tail call void @av_freep(ptr noundef nonnull %11) #16
  %12 = getelementptr inbounds nuw i8, ptr %3, i64 256
  tail call void @av_freep(ptr noundef nonnull %12) #16
  %13 = getelementptr inbounds nuw i8, ptr %3, i64 264
  tail call void @av_freep(ptr noundef nonnull %13) #16
  %14 = getelementptr inbounds nuw i8, ptr %3, i64 272
  tail call void @av_freep(ptr noundef nonnull %14) #16
  %15 = getelementptr inbounds nuw i8, ptr %3, i64 280
  tail call void @av_freep(ptr noundef nonnull %15) #16
  %16 = getelementptr inbounds nuw i8, ptr %3, i64 296
  tail call void @av_freep(ptr noundef nonnull %16) #16
  %17 = getelementptr inbounds nuw i8, ptr %3, i64 288
  tail call void @av_freep(ptr noundef nonnull %17) #16
  %18 = getelementptr inbounds nuw i8, ptr %3, i64 304
  tail call void @av_freep(ptr noundef nonnull %18) #16
  %19 = getelementptr inbounds nuw i8, ptr %3, i64 312
  tail call void @av_freep(ptr noundef nonnull %19) #16
  %20 = getelementptr inbounds nuw i8, ptr %3, i64 344
  tail call void @av_freep(ptr noundef nonnull %20) #16
  %21 = getelementptr inbounds nuw i8, ptr %3, i64 352
  tail call void @av_freep(ptr noundef nonnull %21) #16
  %22 = getelementptr inbounds nuw i8, ptr %3, i64 360
  tail call void @av_freep(ptr noundef nonnull %22) #16
  %23 = getelementptr inbounds nuw i8, ptr %3, i64 320
  tail call void @av_freep(ptr noundef nonnull %23) #16
  %24 = getelementptr inbounds nuw i8, ptr %3, i64 328
  tail call void @av_freep(ptr noundef nonnull %24) #16
  %25 = getelementptr inbounds nuw i8, ptr %3, i64 336
  tail call void @av_freep(ptr noundef nonnull %25) #16
  %26 = getelementptr inbounds nuw i8, ptr %3, i64 368
  tail call void @av_freep(ptr noundef nonnull %26) #16
  %27 = getelementptr inbounds nuw i8, ptr %3, i64 376
  %28 = load ptr, ptr %27, align 8, !tbaa !81
  %.not = icmp eq ptr %28, null
  br i1 %.not, label %31, label %29

29:                                               ; preds = %1
  %30 = getelementptr inbounds nuw i8, ptr %28, i64 24
  tail call void @av_freep(ptr noundef nonnull %30) #16
  tail call void @av_freep(ptr noundef nonnull %27) #16
  br label %31

31:                                               ; preds = %29, %1
  %32 = getelementptr inbounds nuw i8, ptr %3, i64 384
  tail call void @av_freep(ptr noundef nonnull %32) #16
  %33 = getelementptr inbounds nuw i8, ptr %3, i64 392
  tail call void @av_freep(ptr noundef nonnull %33) #16
  %34 = getelementptr inbounds nuw i8, ptr %3, i64 400
  tail call void @av_freep(ptr noundef nonnull %34) #16
  %35 = getelementptr inbounds nuw i8, ptr %3, i64 408
  tail call void @av_freep(ptr noundef nonnull %35) #16
  %36 = getelementptr inbounds nuw i8, ptr %3, i64 416
  %37 = load ptr, ptr %36, align 8, !tbaa !77
  %.not40 = icmp eq ptr %37, null
  br i1 %.not40, label %46, label %.preheader

.preheader:                                       ; preds = %31
  %38 = getelementptr inbounds nuw i8, ptr %0, i64 356
  %39 = load i32, ptr %38, align 4, !tbaa !39
  %40 = icmp sgt i32 %39, 0
  br i1 %40, label %.lr.ph, label %._crit_edge

.lr.ph:                                           ; preds = %.preheader, %.lr.ph
  %indvars.iv = phi i64 [ %indvars.iv.next, %.lr.ph ], [ 0, %.preheader ]
  %41 = load ptr, ptr %36, align 8, !tbaa !77
  %42 = getelementptr inbounds nuw ptr, ptr %41, i64 %indvars.iv
  tail call void @av_freep(ptr noundef %42) #16
  %indvars.iv.next = add nuw nsw i64 %indvars.iv, 1
  %43 = load i32, ptr %38, align 4, !tbaa !39
  %44 = sext i32 %43 to i64
  %45 = icmp slt i64 %indvars.iv.next, %44
  br i1 %45, label %.lr.ph, label %._crit_edge, !llvm.loop !185

._crit_edge:                                      ; preds = %.lr.ph, %.preheader
  tail call void @av_freep(ptr noundef nonnull %36) #16
  br label %46

46:                                               ; preds = %._crit_edge, %31
  %47 = getelementptr inbounds nuw i8, ptr %3, i64 424
  tail call void @av_freep(ptr noundef nonnull %47) #16
  %48 = getelementptr inbounds nuw i8, ptr %3, i64 432
  tail call void @av_freep(ptr noundef nonnull %48) #16
  ret i32 0
}